CCS PCM C Compiler, Version 5.091, 13314               11-jul.-21 12:32

               Filename:   C:\Users\jymcl\Documents\Chapingo\6 Semestre\Sistemas digitales embebidos\Practica 7\practica7a.lst

               ROM used:   205 words (20%)
                           Largest free fragment is 819
               RAM used:   5 (7%) at main() level
                           6 (9%) worst case
               Stack used: 1 locations
               Stack size: 8

0000:  MOVLW  00
0001:  MOVWF  0A
0002:  GOTO   018
0003:  NOP
.................... #include <practica7a.h>
.................... #include <16F84A.h>
.................... //////////// Standard Header file for the PIC16F84A device ////////////////
.................... ///////////////////////////////////////////////////////////////////////////
.................... ////        (C) Copyright 1996, 2014 Custom Computer Services          ////
.................... //// This source code may only be used by licensed users of the CCS C  ////
.................... //// compiler.  This source code may only be distributed to other      ////
.................... //// licensed users of the CCS C compiler.  No other use, reproduction ////
.................... //// or distribution is permitted without written permission.          ////
.................... //// Derivative programs created using this software in object code    ////
.................... //// form are not restricted in any way.                               ////
.................... ///////////////////////////////////////////////////////////////////////////
.................... #device PIC16F84A
.................... 
.................... #list
.................... 
.................... #use delay(crystal=4MHz)
0004:  MOVLW  12
0005:  MOVWF  04
0006:  MOVF   00,W
0007:  BTFSC  03.2
0008:  GOTO   017
0009:  MOVLW  01
000A:  MOVWF  0D
000B:  CLRF   0C
000C:  DECFSZ 0C,F
000D:  GOTO   00C
000E:  DECFSZ 0D,F
000F:  GOTO   00B
0010:  MOVLW  4A
0011:  MOVWF  0C
0012:  DECFSZ 0C,F
0013:  GOTO   012
0014:  GOTO   015
0015:  DECFSZ 00,F
0016:  GOTO   009
0017:  RETURN
.................... 
.................... #define DELAY 1000
.................... 
.................... 
.................... 
.................... 
.................... void main()
0018:  MOVF   03,W
0019:  ANDLW  1F
001A:  MOVWF  03
.................... {
.................... 
....................    while(TRUE)
....................    {
.................... 
....................       //Example blinking LED program
....................       output_low(PIN_B0);
001B:  BSF    03.5
001C:  BCF    06.0
001D:  BCF    03.5
001E:  BCF    06.0
....................       delay_ms(DELAY);
001F:  MOVLW  04
0020:  MOVWF  11
0021:  MOVLW  FA
0022:  MOVWF  12
0023:  CALL   004
0024:  DECFSZ 11,F
0025:  GOTO   021
....................       output_high(PIN_B0);
0026:  BSF    03.5
0027:  BCF    06.0
0028:  BCF    03.5
0029:  BSF    06.0
....................       delay_ms(DELAY);
002A:  MOVLW  04
002B:  MOVWF  11
002C:  MOVLW  FA
002D:  MOVWF  12
002E:  CALL   004
002F:  DECFSZ 11,F
0030:  GOTO   02C
....................       
....................       output_low(PIN_B1);
0031:  BSF    03.5
0032:  BCF    06.1
0033:  BCF    03.5
0034:  BCF    06.1
....................       delay_ms(DELAY);
0035:  MOVLW  04
0036:  MOVWF  11
0037:  MOVLW  FA
0038:  MOVWF  12
0039:  CALL   004
003A:  DECFSZ 11,F
003B:  GOTO   037
....................       output_high(PIN_B1);
003C:  BSF    03.5
003D:  BCF    06.1
003E:  BCF    03.5
003F:  BSF    06.1
....................       delay_ms(DELAY);
0040:  MOVLW  04
0041:  MOVWF  11
0042:  MOVLW  FA
0043:  MOVWF  12
0044:  CALL   004
0045:  DECFSZ 11,F
0046:  GOTO   042
....................       
....................       output_low(PIN_B2);
0047:  BSF    03.5
0048:  BCF    06.2
0049:  BCF    03.5
004A:  BCF    06.2
....................       delay_ms(DELAY);
004B:  MOVLW  04
004C:  MOVWF  11
004D:  MOVLW  FA
004E:  MOVWF  12
004F:  CALL   004
0050:  DECFSZ 11,F
0051:  GOTO   04D
....................       output_high(PIN_B2);
0052:  BSF    03.5
0053:  BCF    06.2
0054:  BCF    03.5
0055:  BSF    06.2
....................       delay_ms(DELAY);
0056:  MOVLW  04
0057:  MOVWF  11
0058:  MOVLW  FA
0059:  MOVWF  12
005A:  CALL   004
005B:  DECFSZ 11,F
005C:  GOTO   058
....................       
....................       output_low(PIN_B3);
005D:  BSF    03.5
005E:  BCF    06.3
005F:  BCF    03.5
0060:  BCF    06.3
....................       delay_ms(DELAY);
0061:  MOVLW  04
0062:  MOVWF  11
0063:  MOVLW  FA
0064:  MOVWF  12
0065:  CALL   004
0066:  DECFSZ 11,F
0067:  GOTO   063
....................       output_high(PIN_B3);
0068:  BSF    03.5
0069:  BCF    06.3
006A:  BCF    03.5
006B:  BSF    06.3
....................       delay_ms(DELAY);
006C:  MOVLW  04
006D:  MOVWF  11
006E:  MOVLW  FA
006F:  MOVWF  12
0070:  CALL   004
0071:  DECFSZ 11,F
0072:  GOTO   06E
....................       
....................       output_low(PIN_B4);
0073:  BSF    03.5
0074:  BCF    06.4
0075:  BCF    03.5
0076:  BCF    06.4
....................       delay_ms(DELAY);
0077:  MOVLW  04
0078:  MOVWF  11
0079:  MOVLW  FA
007A:  MOVWF  12
007B:  CALL   004
007C:  DECFSZ 11,F
007D:  GOTO   079
....................       output_high(PIN_B4);
007E:  BSF    03.5
007F:  BCF    06.4
0080:  BCF    03.5
0081:  BSF    06.4
....................       delay_ms(DELAY);
0082:  MOVLW  04
0083:  MOVWF  11
0084:  MOVLW  FA
0085:  MOVWF  12
0086:  CALL   004
0087:  DECFSZ 11,F
0088:  GOTO   084
....................       
....................       output_low(PIN_B5);
0089:  BSF    03.5
008A:  BCF    06.5
008B:  BCF    03.5
008C:  BCF    06.5
....................       delay_ms(DELAY);
008D:  MOVLW  04
008E:  MOVWF  11
008F:  MOVLW  FA
0090:  MOVWF  12
0091:  CALL   004
0092:  DECFSZ 11,F
0093:  GOTO   08F
....................       output_high(PIN_B5);
0094:  BSF    03.5
0095:  BCF    06.5
0096:  BCF    03.5
0097:  BSF    06.5
....................       delay_ms(DELAY);
0098:  MOVLW  04
0099:  MOVWF  11
009A:  MOVLW  FA
009B:  MOVWF  12
009C:  CALL   004
009D:  DECFSZ 11,F
009E:  GOTO   09A
....................       
....................       output_low(PIN_B6);
009F:  BSF    03.5
00A0:  BCF    06.6
00A1:  BCF    03.5
00A2:  BCF    06.6
....................       delay_ms(DELAY);
00A3:  MOVLW  04
00A4:  MOVWF  11
00A5:  MOVLW  FA
00A6:  MOVWF  12
00A7:  CALL   004
00A8:  DECFSZ 11,F
00A9:  GOTO   0A5
....................       output_high(PIN_B6);
00AA:  BSF    03.5
00AB:  BCF    06.6
00AC:  BCF    03.5
00AD:  BSF    06.6
....................       delay_ms(DELAY);
00AE:  MOVLW  04
00AF:  MOVWF  11
00B0:  MOVLW  FA
00B1:  MOVWF  12
00B2:  CALL   004
00B3:  DECFSZ 11,F
00B4:  GOTO   0B0
....................       
....................       output_low(PIN_B7);
00B5:  BSF    03.5
00B6:  BCF    06.7
00B7:  BCF    03.5
00B8:  BCF    06.7
....................       delay_ms(DELAY);
00B9:  MOVLW  04
00BA:  MOVWF  11
00BB:  MOVLW  FA
00BC:  MOVWF  12
00BD:  CALL   004
00BE:  DECFSZ 11,F
00BF:  GOTO   0BB
....................       output_high(PIN_B7);
00C0:  BSF    03.5
00C1:  BCF    06.7
00C2:  BCF    03.5
00C3:  BSF    06.7
....................       delay_ms(DELAY);
00C4:  MOVLW  04
00C5:  MOVWF  11
00C6:  MOVLW  FA
00C7:  MOVWF  12
00C8:  CALL   004
00C9:  DECFSZ 11,F
00CA:  GOTO   0C6
00CB:  GOTO   01B
.................... 
....................       //TODO: User Code
....................    }
.................... 
.................... }
00CC:  SLEEP

Configuration Fuses:
   Word  1: 3FF1   XT NOWDT PUT NOPROTECT
