CCS PCM C Compiler, Version 5.091, 13314               05-jul.-21 15:42

               Filename:   C:\Users\jymcl\Documents\Chapingo\6 Semestre\Sistemas digitales embebidos\Practica32\Practica32.lst

               ROM used:   71 words (7%)
                           Largest free fragment is 953
               RAM used:   5 (7%) at main() level
                           6 (9%) worst case
               Stack used: 0 locations
               Stack size: 8

0000:  MOVLW  00
0001:  MOVWF  0A
0002:  GOTO   018
0003:  NOP
.................... #include <Practica32.h>
.................... #include <16F84A.h>
.................... //////////// Standard Header file for the PIC16F84A device ////////////////
.................... ///////////////////////////////////////////////////////////////////////////
.................... ////        (C) Copyright 1996, 2014 Custom Computer Services          ////
.................... //// This source code may only be used by licensed users of the CCS C  ////
.................... //// compiler.  This source code may only be distributed to other      ////
.................... //// licensed users of the CCS C compiler.  No other use, reproduction ////
.................... //// or distribution is permitted without written permission.          ////
.................... //// Derivative programs created using this software in object code    ////
.................... //// form are not restricted in any way.                               ////
.................... ///////////////////////////////////////////////////////////////////////////
.................... #device PIC16F84A
.................... 
.................... #list
.................... 
.................... #use delay(crystal=4MHz)
0004:  MOVLW  12
0005:  MOVWF  04
0006:  MOVF   00,W
0007:  BTFSC  03.2
0008:  GOTO   017
0009:  MOVLW  01
000A:  MOVWF  0D
000B:  CLRF   0C
000C:  DECFSZ 0C,F
000D:  GOTO   00C
000E:  DECFSZ 0D,F
000F:  GOTO   00B
0010:  MOVLW  4A
0011:  MOVWF  0C
0012:  DECFSZ 0C,F
0013:  GOTO   012
0014:  GOTO   015
0015:  DECFSZ 00,F
0016:  GOTO   009
0017:  RETURN
.................... 
.................... 
.................... #use standard_io(b)
.................... 
.................... void main()
0018:  MOVF   03,W
0019:  ANDLW  1F
001A:  MOVWF  03
.................... {
....................    set_tris_b(0b00000000);
001B:  MOVLW  00
001C:  BSF    03.5
001D:  MOVWF  06
....................    output_b(0b00000000);
001E:  CLRF   06
001F:  BCF    03.5
0020:  CLRF   06
....................    while(TRUE)
....................    {
....................       // Giro a la derecha
....................       output_high(PIN_B0);
0021:  BSF    03.5
0022:  BCF    06.0
0023:  BCF    03.5
0024:  BSF    06.0
....................       delay_ms(1000);
0025:  MOVLW  04
0026:  MOVWF  11
0027:  MOVLW  FA
0028:  MOVWF  12
0029:  CALL   004
002A:  DECFSZ 11,F
002B:  GOTO   027
....................       output_low(PIN_B0);
002C:  BSF    03.5
002D:  BCF    06.0
002E:  BCF    03.5
002F:  BCF    06.0
....................       delay_ms(200);
0030:  MOVLW  C8
0031:  MOVWF  12
0032:  CALL   004
....................       // Giro a la izquierda
....................       output_high(PIN_B1);
0033:  BSF    03.5
0034:  BCF    06.1
0035:  BCF    03.5
0036:  BSF    06.1
....................       delay_ms(1000);
0037:  MOVLW  04
0038:  MOVWF  11
0039:  MOVLW  FA
003A:  MOVWF  12
003B:  CALL   004
003C:  DECFSZ 11,F
003D:  GOTO   039
....................       output_low(PIN_B1);
003E:  BSF    03.5
003F:  BCF    06.1
0040:  BCF    03.5
0041:  BCF    06.1
....................       delay_ms(200);
0042:  MOVLW  C8
0043:  MOVWF  12
0044:  CALL   004
0045:  GOTO   021
....................    }
.................... }
0046:  SLEEP

Configuration Fuses:
   Word  1: 3FF1   XT NOWDT PUT NOPROTECT
